target datalayout = "e-m:e-p270:32:32-p271:32:32-p272:64:64-i64:64-i128:128-f80:128-n8:16:32:64-S128"
target triple = "x86_64-pc-linux-gnu"

%struct.sp_int = type { i16, i16, [129 x i64] }

; Function Attrs: nounwind uwtable
define i32 @sp_lshd(ptr noundef %0, i32 noundef %1) #0 {
  %3 = alloca ptr, align 8
  %4 = alloca i32, align 4
  %5 = alloca i32, align 4
  %6 = alloca i32, align 4
  store ptr %0, ptr %3, align 8, !tbaa !3
  store i32 %1, ptr %4, align 4, !tbaa !8
  call void @llvm.lifetime.start.p0(i64 4, ptr %5) #8
  store i32 0, ptr %5, align 4, !tbaa !8
  %7 = load ptr, ptr %3, align 8, !tbaa !3
  %8 = icmp eq ptr %7, null
  br i1 %8, label %12, label %9

9:                                                ; preds = %2
  %10 = load i32, ptr %4, align 4, !tbaa !8
  %11 = icmp slt i32 %10, 0
  br i1 %11, label %12, label %13

12:                                               ; preds = %9, %2
  store i32 -98, ptr %5, align 4, !tbaa !8
  br label %13

13:                                               ; preds = %12, %9
  %14 = load i32, ptr %5, align 4, !tbaa !8
  %15 = icmp eq i32 %14, 0
  br i1 %15, label %16, label %29

16:                                               ; preds = %13
  %17 = load ptr, ptr %3, align 8, !tbaa !3
  %18 = getelementptr inbounds nuw %struct.sp_int, ptr %17, i32 0, i32 0
  %19 = load i16, ptr %18, align 8, !tbaa !15
  %20 = zext i16 %19 to i32
  %21 = load i32, ptr %4, align 4, !tbaa !8
  %22 = add i32 %20, %21
  %23 = load ptr, ptr %3, align 8, !tbaa !3
  %24 = getelementptr inbounds nuw %struct.sp_int, ptr %23, i32 0, i32 1
  %25 = load i16, ptr %24, align 2, !tbaa !12
  %26 = zext i16 %25 to i32
  %27 = icmp ugt i32 %22, %26
  br i1 %27, label %28, label %29

28:                                               ; preds = %16
  store i32 -98, ptr %5, align 4, !tbaa !8
  br label %29

29:                                               ; preds = %28, %16, %13
  %30 = load i32, ptr %5, align 4, !tbaa !8
  %31 = icmp eq i32 %30, 0
  br i1 %31, label %32, label %101

32:                                               ; preds = %29
  %33 = load ptr, ptr %3, align 8, !tbaa !3
  %34 = getelementptr inbounds nuw %struct.sp_int, ptr %33, i32 0, i32 2
  %35 = getelementptr inbounds [129 x i64], ptr %34, i64 0, i64 0
  %36 = load i32, ptr %4, align 4, !tbaa !8
  %37 = sext i32 %36 to i64
  %38 = getelementptr inbounds i64, ptr %35, i64 %37
  %39 = load ptr, ptr %3, align 8, !tbaa !3
  %40 = getelementptr inbounds nuw %struct.sp_int, ptr %39, i32 0, i32 2
  %41 = getelementptr inbounds [129 x i64], ptr %40, i64 0, i64 0
  %42 = load ptr, ptr %3, align 8, !tbaa !3
  %43 = getelementptr inbounds nuw %struct.sp_int, ptr %42, i32 0, i32 0
  %44 = load i16, ptr %43, align 8, !tbaa !15
  %45 = zext i16 %44 to i32
  %46 = mul i32 %45, 8
  %47 = zext i32 %46 to i64
  call void @llvm.memmove.p0.p0.i64(ptr align 8 %38, ptr align 8 %41, i64 %47, i1 false)
  %48 = load ptr, ptr %3, align 8, !tbaa !3
  %49 = getelementptr inbounds nuw %struct.sp_int, ptr %48, i32 0, i32 2
  %50 = getelementptr inbounds [129 x i64], ptr %49, i64 0, i64 0
  %51 = load i32, ptr %4, align 4, !tbaa !8
  %52 = sext i32 %51 to i64
  %53 = mul i64 %52, 8
  call void @llvm.memset.p0.i64(ptr align 8 %50, i8 0, i64 %53, i1 false)
  %54 = load ptr, ptr %3, align 8, !tbaa !3
  %55 = getelementptr inbounds nuw %struct.sp_int, ptr %54, i32 0, i32 0
  %56 = load i16, ptr %55, align 8, !tbaa !15
  %57 = zext i16 %56 to i32
  %58 = load i32, ptr %4, align 4, !tbaa !8
  %59 = add nsw i32 %57, %58
  %60 = trunc i32 %59 to i16
  %61 = load ptr, ptr %3, align 8, !tbaa !3
  %62 = getelementptr inbounds nuw %struct.sp_int, ptr %61, i32 0, i32 0
  store i16 %60, ptr %62, align 8, !tbaa !15
  br label %63

63:                                               ; preds = %32
  call void @llvm.lifetime.start.p0(i64 4, ptr %6) #8
  %64 = load ptr, ptr %3, align 8, !tbaa !3
  %65 = getelementptr inbounds nuw %struct.sp_int, ptr %64, i32 0, i32 0
  %66 = load i16, ptr %65, align 8, !tbaa !15
  %67 = zext i16 %66 to i32
  %68 = icmp sgt i32 %67, 0
  br i1 %68, label %69, label %98

69:                                               ; preds = %63
  %70 = load ptr, ptr %3, align 8, !tbaa !3
  %71 = getelementptr inbounds nuw %struct.sp_int, ptr %70, i32 0, i32 0
  %72 = load i16, ptr %71, align 8, !tbaa !15
  %73 = zext i16 %72 to i32
  %74 = sub nsw i32 %73, 1
  store i32 %74, ptr %6, align 4, !tbaa !8
  br label %75

75:                                               ; preds = %89, %69
  %76 = load i32, ptr %6, align 4, !tbaa !8
  %77 = icmp sge i32 %76, 0
  br i1 %77, label %78, label %86

78:                                               ; preds = %75
  %79 = load ptr, ptr %3, align 8, !tbaa !3
  %80 = getelementptr inbounds nuw %struct.sp_int, ptr %79, i32 0, i32 2
  %81 = load i32, ptr %6, align 4, !tbaa !8
  %82 = sext i32 %81 to i64
  %83 = getelementptr inbounds [129 x i64], ptr %80, i64 0, i64 %82
  %84 = load i64, ptr %83, align 8, !tbaa !16
  %85 = icmp eq i64 %84, 0
  br label %86

86:                                               ; preds = %78, %75
  %87 = phi i1 [ false, %75 ], [ %85, %78 ]
  br i1 %87, label %88, label %92

88:                                               ; preds = %86
  br label %89

89:                                               ; preds = %88
  %90 = load i32, ptr %6, align 4, !tbaa !8
  %91 = add nsw i32 %90, -1
  store i32 %91, ptr %6, align 4, !tbaa !8
  br label %75, !llvm.loop !78

92:                                               ; preds = %86
  %93 = load i32, ptr %6, align 4, !tbaa !8
  %94 = add nsw i32 %93, 1
  %95 = trunc i32 %94 to i16
  %96 = load ptr, ptr %3, align 8, !tbaa !3
  %97 = getelementptr inbounds nuw %struct.sp_int, ptr %96, i32 0, i32 0
  store i16 %95, ptr %97, align 8, !tbaa !15
  br label %98

98:                                               ; preds = %92, %63
  call void @llvm.lifetime.end.p0(i64 4, ptr %6) #8
  br label %99

99:                                               ; preds = %98
  br label %100

100:                                              ; preds = %99
  br label %101

101:                                              ; preds = %100, %29
  %102 = load i32, ptr %5, align 4, !tbaa !8
  call void @llvm.lifetime.end.p0(i64 4, ptr %5) #8
  ret i32 %102
}