; Function Attrs: nofree norecurse nosync nounwind memory(argmem: readwrite) uwtable
define range(i32 -98, 1) i32 @sp_lshd(ptr noundef captures(address_is_null) %0, i32 noundef %1) local_unnamed_addr #8 {
  %3 = icmp ne ptr %0, null
  %4 = icmp sgt i32 %1, -1
  %or.cond.not = and i1 %3, %4
  br i1 %or.cond.not, label %5, label %.thread31

5:                                                ; preds = %2
  %6 = load i16, ptr %0, align 8, !tbaa !12
  %7 = zext i16 %6 to i32
  %8 = add nuw i32 %1, %7
  %9 = getelementptr inbounds nuw i8, ptr %0, i64 2
  %10 = load i16, ptr %9, align 2, !tbaa !10
  %11 = zext i16 %10 to i32
  %12 = icmp ugt i32 %8, %11
  br i1 %12, label %.thread31, label %.thread

.thread:                                          ; preds = %5
  %13 = getelementptr inbounds nuw i8, ptr %0, i64 8
  %14 = zext nneg i32 %1 to i64
  %15 = getelementptr inbounds nuw i64, ptr %13, i64 %14
  %16 = zext i16 %6 to i64
  %17 = shl nuw nsw i64 %16, 3
  tail call void @llvm.memmove.p0.p0.i64(ptr nonnull align 8 %15, ptr nonnull align 8 %13, i64 %17, i1 false)
  %18 = shl nuw nsw i64 %14, 3
  tail call void @llvm.memset.p0.i64(ptr nonnull align 8 %13, i8 0, i64 %18, i1 false)
  %19 = trunc i32 %1 to i16
  %20 = add i16 %6, %19
  store i16 %20, ptr %0, align 8, !tbaa !12
  %.not = icmp eq i16 %20, 0
  br i1 %.not, label %.thread31, label %21

21:                                               ; preds = %.thread
  %22 = zext i16 %20 to i64
  br label %23

23:                                               ; preds = %25, %21
  %indvars.iv = phi i64 [ %indvars.iv.next, %25 ], [ %22, %21 ]
  %24 = icmp sgt i64 %indvars.iv, 0
  br i1 %24, label %25, label %.critedge

25:                                               ; preds = %23
  %indvars.iv.next = add nsw i64 %indvars.iv, -1
  %26 = getelementptr inbounds nuw [129 x i64], ptr %13, i64 0, i64 %indvars.iv.next
  %27 = load i64, ptr %26, align 8, !tbaa !8
  %28 = icmp eq i64 %27, 0
  br i1 %28, label %23, label %.critedge.split.loop.exit34, !llvm.loop !57

.critedge.split.loop.exit34:                      ; preds = %25
  %29 = trunc i64 %indvars.iv to i16
  br label %.critedge

.critedge:                                        ; preds = %23, %.critedge.split.loop.exit34
  %.0.in.lcssa = phi i16 [ %29, %.critedge.split.loop.exit34 ], [ 0, %23 ]
  store i16 %.0.in.lcssa, ptr %0, align 8, !tbaa !12
  br label %.thread31

.thread31:                                        ; preds = %2, %5, %.thread, %.critedge
  %.02529 = phi i32 [ 0, %.thread ], [ 0, %.critedge ], [ -98, %5 ], [ -98, %2 ]
  ret i32 %.02529
}